target datalayout = "e-m:e-p270:32:32-p271:32:32-p272:64:64-i64:64-i128:128-f80:128-n8:16:32:64-S128"
target triple = "x86_64-pc-linux-gnu"

@.str.10 = private unnamed_addr constant [9 x i8] c"jxta.udp\00", align 1
@proto_register_jxta.ett = internal global [10 x ptr] [ptr @ett_jxta, ptr @ett_jxta_welcome, ptr @ett_jxta_udp, ptr @ett_jxta_framing, ptr @ett_jxta_framing_header, ptr @ett_jxta_msg, ptr @ett_jxta_msg_flags, ptr @ett_jxta_elem, ptr @ett_jxta_elem_1_flags, ptr @ett_jxta_elem_2_flags], align 16
@.str.135 = private unnamed_addr constant [9 x i8] c"JXTA P2P\00", align 1
@.str.136 = private unnamed_addr constant [5 x i8] c"JXTA\00", align 1
@.str.137 = private unnamed_addr constant [5 x i8] c"jxta\00", align 1
@proto_jxta = internal global i32 0, align 4
@jxta_tap = internal global i32 0, align 4
@.str.138 = private unnamed_addr constant [13 x i8] c"JXTA Message\00", align 1
@.str.139 = private unnamed_addr constant [13 x i8] c"jxta.message\00", align 1
@proto_message_jxta = internal global i32 0, align 4
@jxta_udp_handle = internal global ptr null, align 8
@.str.140 = private unnamed_addr constant [12 x i8] c"jxta.stream\00", align 1
@stream_jxta_handle = internal global ptr null, align 8
@.str.141 = private unnamed_addr constant [7 x i8] c"AT_URI\00", align 1
@.str.142 = private unnamed_addr constant [12 x i8] c"URI/URL/URN\00", align 1
@uri_address_type = internal global i32 -1, align 4
@.str.143 = private unnamed_addr constant [14 x i8] c"msg.mediatype\00", align 1
@.str.144 = private unnamed_addr constant [45 x i8] c"Register binary JXTA Message as a media type\00", align 1
@.str.145 = private unnamed_addr constant [70 x i8] c"Enable to have correctly typed MIME media dissected as JXTA Messages.\00", align 1
@gMSG_MEDIA = internal global i8 1, align 1
@.str.146 = private unnamed_addr constant [10 x i8] c"desegment\00", align 1
@.str.147 = private unnamed_addr constant [65 x i8] c"Reassemble JXTA messages spanning multiple UDP/TCP/SCTP segments\00", align 1
@gDESEGMENT = internal global i8 1, align 1
@.str.149 = private unnamed_addr constant [14 x i8] c"udp.heuristic\00", align 1
@.str.150 = private unnamed_addr constant [14 x i8] c"tcp.heuristic\00", align 1
@.str.151 = private unnamed_addr constant [15 x i8] c"sctp.heuristic\00", align 1

; Function Attrs: null_pointer_is_valid sspstrong uwtable
define hidden void @proto_register_jxta() #0 {
  %1 = alloca ptr, align 8
  %2 = alloca ptr, align 8
  call void @llvm.lifetime.start.p0(i64 8, ptr %1) #14
  call void @llvm.lifetime.start.p0(i64 8, ptr %2) #14
  %3 = call i32 @proto_register_protocol(ptr noundef @.str.135, ptr noundef @.str.136, ptr noundef @.str.137)
  store i32 %3, ptr @proto_jxta, align 4
  %4 = call i32 @register_tap(ptr noundef @.str.137)
  store i32 %4, ptr @jxta_tap, align 4
  %5 = call i32 @proto_register_protocol(ptr noundef @.str.138, ptr noundef @.str.138, ptr noundef @.str.139)
  store i32 %5, ptr @proto_message_jxta, align 4
  %6 = load i32, ptr @proto_jxta, align 4
  %7 = call ptr @register_dissector(ptr noundef @.str.10, ptr noundef @dissect_jxta_udp, i32 noundef %6)
  store ptr %7, ptr @jxta_udp_handle, align 8
  %8 = load i32, ptr @proto_jxta, align 4
  %9 = call ptr @register_dissector(ptr noundef @.str.140, ptr noundef @dissect_jxta_stream, i32 noundef %8)
  store ptr %9, ptr @stream_jxta_handle, align 8
  %10 = load i32, ptr @proto_jxta, align 4
  call void @proto_register_field_array(i32 noundef %10, ptr noundef @proto_register_jxta.hf, i32 noundef 53)
  call void @proto_register_subtree_array(ptr noundef @proto_register_jxta.ett, i32 noundef 10)
  %11 = load i32, ptr @proto_jxta, align 4
  %12 = call ptr @expert_register_protocol(i32 noundef %11)
  store ptr %12, ptr %2, align 8
  %13 = load ptr, ptr %2, align 8
  call void @expert_register_field_array(ptr noundef %13, ptr noundef @proto_register_jxta.ei, i32 noundef 1)
  %14 = call i32 @address_type_dissector_register(ptr noundef @.str.141, ptr noundef @.str.142, ptr noundef @uri_to_str, ptr noundef @uri_str_len, ptr noundef null, ptr noundef @uri_col_filter_str, ptr noundef null, ptr noundef null, ptr noundef null)
  store i32 %14, ptr @uri_address_type, align 4
  %15 = load i32, ptr @proto_jxta, align 4
  %16 = call ptr @prefs_register_protocol(i32 noundef %15, ptr noundef @proto_reg_handoff_jxta)
  store ptr %16, ptr %1, align 8
  %17 = load ptr, ptr %1, align 8
  call void @prefs_register_bool_preference(ptr noundef %17, ptr noundef @.str.143, ptr noundef @.str.144, ptr noundef @.str.145, ptr noundef @gMSG_MEDIA)
  %18 = load ptr, ptr %1, align 8
  call void @prefs_register_bool_preference(ptr noundef %18, ptr noundef @.str.146, ptr noundef @.str.147, ptr noundef @.str.148, ptr noundef @gDESEGMENT)
  %19 = load ptr, ptr %1, align 8
  call void @prefs_register_obsolete_preference(ptr noundef %19, ptr noundef @.str.149)
  %20 = load ptr, ptr %1, align 8
  call void @prefs_register_obsolete_preference(ptr noundef %20, ptr noundef @.str.150)
  %21 = load ptr, ptr %1, align 8
  call void @prefs_register_obsolete_preference(ptr noundef %21, ptr noundef @.str.151)
  %22 = load i32, ptr @proto_jxta, align 4
  call void @register_conversation_table(i32 noundef %22, i1 noundef zeroext true, ptr noundef @jxta_conversation_packet, ptr noundef @jxta_endpoint_packet)
  call void @llvm.lifetime.end.p0(i64 8, ptr %2) #14
  call void @llvm.lifetime.end.p0(i64 8, ptr %1) #14
  ret void
}