; Function Attrs: null_pointer_is_valid sspstrong uwtable
define hidden void @proto_register_jxta() local_unnamed_addr #0 {
  %1 = tail call i32 @proto_register_protocol(ptr noundef nonnull @.str.135, ptr noundef nonnull @.str.136, ptr noundef nonnull @.str.137)
  store i32 %1, ptr @proto_jxta, align 4
  %2 = tail call i32 @register_tap(ptr noundef nonnull @.str.137)
  store i32 %2, ptr @jxta_tap, align 4
  %3 = tail call i32 @proto_register_protocol(ptr noundef nonnull @.str.138, ptr noundef nonnull @.str.138, ptr noundef nonnull @.str.139)
  store i32 %3, ptr @proto_message_jxta, align 4
  %4 = load i32, ptr @proto_jxta, align 4
  %5 = tail call ptr @register_dissector(ptr noundef nonnull @.str.10, ptr noundef nonnull @dissect_jxta_udp, i32 noundef %4)
  store ptr %5, ptr @jxta_udp_handle, align 8
  %6 = load i32, ptr @proto_jxta, align 4
  %7 = tail call ptr @register_dissector(ptr noundef nonnull @.str.140, ptr noundef nonnull @dissect_jxta_stream, i32 noundef %6)
  store ptr %7, ptr @stream_jxta_handle, align 8
  %8 = load i32, ptr @proto_jxta, align 4
  tail call void @proto_register_field_array(i32 noundef %8, ptr noundef nonnull @proto_register_jxta.hf, i32 noundef 53)
  tail call void @proto_register_subtree_array(ptr noundef nonnull @proto_register_jxta.ett, i32 noundef 10)
  %9 = load i32, ptr @proto_jxta, align 4
  %10 = tail call ptr @expert_register_protocol(i32 noundef %9)
  tail call void @expert_register_field_array(ptr noundef %10, ptr noundef nonnull @proto_register_jxta.ei, i32 noundef 1)
  %11 = tail call i32 @address_type_dissector_register(ptr noundef nonnull @.str.141, ptr noundef nonnull @.str.142, ptr noundef nonnull @uri_to_str, ptr noundef nonnull @uri_str_len, ptr noundef null, ptr noundef nonnull @uri_col_filter_str, ptr noundef null, ptr noundef null, ptr noundef null)
  store i32 %11, ptr @uri_address_type, align 4
  %12 = load i32, ptr @proto_jxta, align 4
  %13 = tail call ptr @prefs_register_protocol(i32 noundef %12, ptr noundef nonnull @proto_reg_handoff_jxta)
  tail call void @prefs_register_bool_preference(ptr noundef %13, ptr noundef nonnull @.str.143, ptr noundef nonnull @.str.144, ptr noundef nonnull @.str.145, ptr noundef nonnull @gMSG_MEDIA)
  tail call void @prefs_register_bool_preference(ptr noundef %13, ptr noundef nonnull @.str.146, ptr noundef nonnull @.str.147, ptr noundef nonnull @.str.148, ptr noundef nonnull @gDESEGMENT)
  tail call void @prefs_register_obsolete_preference(ptr noundef %13, ptr noundef nonnull @.str.149)
  tail call void @prefs_register_obsolete_preference(ptr noundef %13, ptr noundef nonnull @.str.150)
  tail call void @prefs_register_obsolete_preference(ptr noundef %13, ptr noundef nonnull @.str.151)
  %14 = load i32, ptr @proto_jxta, align 4
  tail call void @register_conversation_table(i32 noundef %14, i1 noundef zeroext true, ptr noundef nonnull @jxta_conversation_packet, ptr noundef nonnull @jxta_endpoint_packet)
  ret void
}